target datalayout = "e-m:e-p270:32:32-p271:32:32-p272:64:64-i64:64-i128:128-f80:128-n8:16:32:64-S128"
target triple = "x86_64-unknown-linux-gnu"

%class.doc_manager = type { %class.tbv_manager, ptr, %class.small_object_allocator }
%class.tbv_manager = type { %class.fixed_bit_vector_manager, %class.ptr_vector }
%class.fixed_bit_vector_manager = type <{ %class.small_object_allocator, i32, i32, i32, i32, %class.fixed_bit_vector, [4 x i8] }>
%class.fixed_bit_vector = type { [1 x i32] }
%class.ptr_vector = type { %class.vector }
%class.vector = type { ptr }
%class.small_object_allocator = type { [32 x ptr], [32 x ptr], i64 }
%class.doc = type { ptr, %class.union_bvec }
%class.union_bvec = type { %class.buffer }
%class.buffer = type { ptr, i32, i32, [8 x %"union.std::aligned_storage<8, 8>::type"] }
%"union.std::aligned_storage<8, 8>::type" = type { [8 x i8] }

; Function Attrs: mustprogress uwtable
define linkonce_odr hidden void @_Z13dealloc_svectIP3tbvEvPT_(ptr noundef %ptr) #4 comdat {
entry:
  %ptr.addr = alloca ptr, align 8
  store ptr %ptr, ptr %ptr.addr, align 8
  %0 = load ptr, ptr %ptr.addr, align 8
  %cmp = icmp eq ptr %0, null
  br i1 %cmp, label %if.then, label %if.end

if.then:                                          ; preds = %entry
  br label %return

if.end:                                           ; preds = %entry
  %1 = load ptr, ptr %ptr.addr, align 8
  call void @_ZN6memory10deallocateEPv(ptr noundef %1)
  br label %return

return:                                           ; preds = %if.end, %if.then
  ret void
}

; Function Attrs: mustprogress uwtable
define linkonce_odr hidden void @_ZN6bufferIP3tbvLb0ELj8EE11free_memoryEv(ptr noundef nonnull align 8 dereferenceable(80) %this) #4 comdat align 2 {
entry:
  %this.addr = alloca ptr, align 8
  store ptr %this, ptr %this.addr, align 8
  %this1 = load ptr, ptr %this.addr, align 8
  %m_buffer = getelementptr inbounds %class.buffer, ptr %this1, i32 0, i32 0
  %0 = load ptr, ptr %m_buffer, align 8
  %m_initial_buffer = getelementptr inbounds %class.buffer, ptr %this1, i32 0, i32 3
  %arraydecay = getelementptr inbounds [8 x %"union.std::aligned_storage<8, 8>::type"], ptr %m_initial_buffer, i64 0, i64 0
  %cmp = icmp ne ptr %0, %arraydecay
  br i1 %cmp, label %if.then, label %if.end

if.then:                                          ; preds = %entry
  %m_buffer2 = getelementptr inbounds %class.buffer, ptr %this1, i32 0, i32 0
  %1 = load ptr, ptr %m_buffer2, align 8
  call void @_Z13dealloc_svectIP3tbvEvPT_(ptr noundef %1)
  br label %if.end

if.end:                                           ; preds = %if.then, %entry
  ret void
}

; Function Attrs: mustprogress nounwind uwtable
define linkonce_odr hidden void @_ZN6bufferIP3tbvLb0ELj8EEC2Ev(ptr noundef nonnull align 8 dereferenceable(80) %this) unnamed_addr #5 comdat align 2 {
entry:
  %this.addr = alloca ptr, align 8
  store ptr %this, ptr %this.addr, align 8
  %this1 = load ptr, ptr %this.addr, align 8
  %m_buffer = getelementptr inbounds %class.buffer, ptr %this1, i32 0, i32 0
  %m_initial_buffer = getelementptr inbounds %class.buffer, ptr %this1, i32 0, i32 3
  %arraydecay = getelementptr inbounds [8 x %"union.std::aligned_storage<8, 8>::type"], ptr %m_initial_buffer, i64 0, i64 0
  store ptr %arraydecay, ptr %m_buffer, align 8
  %m_pos = getelementptr inbounds %class.buffer, ptr %this1, i32 0, i32 1
  store i32 0, ptr %m_pos, align 8
  %m_capacity = getelementptr inbounds %class.buffer, ptr %this1, i32 0, i32 2
  store i32 8, ptr %m_capacity, align 4
  ret void
}

; Function Attrs: mustprogress uwtable
define linkonce_odr hidden void @_ZN6bufferIP3tbvLb0ELj8EE6expandEv(ptr noundef nonnull align 8 dereferenceable(80) %this) #4 comdat align 2 {
entry:
  %this.addr = alloca ptr, align 8
  %new_capacity = alloca i32, align 4
  %new_buffer = alloca ptr, align 8
  %i = alloca i32, align 4
  store ptr %this, ptr %this.addr, align 8
  %this1 = load ptr, ptr %this.addr, align 8
  %m_capacity = getelementptr inbounds %class.buffer, ptr %this1, i32 0, i32 2
  %0 = load i32, ptr %m_capacity, align 4
  %shl = shl i32 %0, 1
  store i32 %shl, ptr %new_capacity, align 4
  %1 = load i32, ptr %new_capacity, align 4
  %conv = zext i32 %1 to i64
  %mul = mul i64 8, %conv
  %call = call noalias noundef ptr @_ZN6memory8allocateEm(i64 noundef %mul)
  store ptr %call, ptr %new_buffer, align 8
  store i32 0, ptr %i, align 4
  br label %for.cond

for.cond:                                         ; preds = %for.inc, %entry
  %2 = load i32, ptr %i, align 4
  %m_pos = getelementptr inbounds %class.buffer, ptr %this1, i32 0, i32 1
  %3 = load i32, ptr %m_pos, align 8
  %cmp = icmp ult i32 %2, %3
  br i1 %cmp, label %for.body, label %for.end

for.body:                                         ; preds = %for.cond
  %4 = load ptr, ptr %new_buffer, align 8
  %5 = load i32, ptr %i, align 4
  %idxprom = zext i32 %5 to i64
  %arrayidx = getelementptr inbounds ptr, ptr %4, i64 %idxprom
  %m_buffer = getelementptr inbounds %class.buffer, ptr %this1, i32 0, i32 0
  %6 = load ptr, ptr %m_buffer, align 8
  %7 = load i32, ptr %i, align 4
  %idxprom2 = zext i32 %7 to i64
  %arrayidx3 = getelementptr inbounds ptr, ptr %6, i64 %idxprom2
  %8 = load ptr, ptr %arrayidx3, align 8
  store ptr %8, ptr %arrayidx, align 8
  br label %for.inc

for.inc:                                          ; preds = %for.body
  %9 = load i32, ptr %i, align 4
  %inc = add i32 %9, 1
  store i32 %inc, ptr %i, align 4
  br label %for.cond, !llvm.loop !56

for.end:                                          ; preds = %for.cond
  call void @_ZN6bufferIP3tbvLb0ELj8EE11free_memoryEv(ptr noundef nonnull align 8 dereferenceable(80) %this1)
  %10 = load ptr, ptr %new_buffer, align 8
  %m_buffer4 = getelementptr inbounds %class.buffer, ptr %this1, i32 0, i32 0
  store ptr %10, ptr %m_buffer4, align 8
  %11 = load i32, ptr %new_capacity, align 4
  %m_capacity5 = getelementptr inbounds %class.buffer, ptr %this1, i32 0, i32 2
  store i32 %11, ptr %m_capacity5, align 4
  ret void
}

; Function Attrs: mustprogress nounwind uwtable
define linkonce_odr hidden void @_ZN10union_bvecI11tbv_manager3tbvEC2Ev(ptr noundef nonnull align 8 dereferenceable(80) %this) unnamed_addr #5 comdat align 2 {
entry:
  %this.addr = alloca ptr, align 8
  store ptr %this, ptr %this.addr, align 8
  %this1 = load ptr, ptr %this.addr, align 8
  %m_elems = getelementptr inbounds %class.union_bvec, ptr %this1, i32 0, i32 0
  call void @_ZN6bufferIP3tbvLb0ELj8EEC2Ev(ptr noundef nonnull align 8 dereferenceable(80) %m_elems) #3
  ret void
}

; Function Attrs: mustprogress uwtable
define linkonce_odr hidden void @_ZN6bufferIP3tbvLb0ELj8EE9push_backERKS1_(ptr noundef nonnull align 8 dereferenceable(80) %this, ptr noundef nonnull align 8 dereferenceable(8) %elem) #4 comdat align 2 {
entry:
  %this.addr = alloca ptr, align 8
  %elem.addr = alloca ptr, align 8
  store ptr %this, ptr %this.addr, align 8
  store ptr %elem, ptr %elem.addr, align 8
  %this1 = load ptr, ptr %this.addr, align 8
  %m_pos = getelementptr inbounds %class.buffer, ptr %this1, i32 0, i32 1
  %0 = load i32, ptr %m_pos, align 8
  %m_capacity = getelementptr inbounds %class.buffer, ptr %this1, i32 0, i32 2
  %1 = load i32, ptr %m_capacity, align 4
  %cmp = icmp uge i32 %0, %1
  br i1 %cmp, label %if.then, label %if.end

if.then:                                          ; preds = %entry
  call void @_ZN6bufferIP3tbvLb0ELj8EE6expandEv(ptr noundef nonnull align 8 dereferenceable(80) %this1)
  br label %if.end

if.end:                                           ; preds = %if.then, %entry
  %m_buffer = getelementptr inbounds %class.buffer, ptr %this1, i32 0, i32 0
  %2 = load ptr, ptr %m_buffer, align 8
  %m_pos2 = getelementptr inbounds %class.buffer, ptr %this1, i32 0, i32 1
  %3 = load i32, ptr %m_pos2, align 8
  %idx.ext = zext i32 %3 to i64
  %add.ptr = getelementptr inbounds ptr, ptr %2, i64 %idx.ext
  %4 = load ptr, ptr %elem.addr, align 8
  %5 = load ptr, ptr %4, align 8
  store ptr %5, ptr %add.ptr, align 8
  %m_pos3 = getelementptr inbounds %class.buffer, ptr %this1, i32 0, i32 1
  %6 = load i32, ptr %m_pos3, align 8
  %inc = add i32 %6, 1
  store i32 %inc, ptr %m_pos3, align 8
  ret void
}

; Function Attrs: mustprogress nounwind uwtable
define linkonce_odr hidden noundef nonnull align 8 dereferenceable(8) ptr @_ZNK6bufferIP3tbvLb0ELj8EEixEj(ptr noundef nonnull align 8 dereferenceable(80) %this, i32 noundef %idx) #5 comdat align 2 {
entry:
  %this.addr = alloca ptr, align 8
  %idx.addr = alloca i32, align 4
  store ptr %this, ptr %this.addr, align 8
  store i32 %idx, ptr %idx.addr, align 4
  %this1 = load ptr, ptr %this.addr, align 8
  %m_buffer = getelementptr inbounds %class.buffer, ptr %this1, i32 0, i32 0
  %0 = load ptr, ptr %m_buffer, align 8
  %1 = load i32, ptr %idx.addr, align 4
  %idxprom = zext i32 %1 to i64
  %arrayidx = getelementptr inbounds ptr, ptr %0, i64 %idxprom
  ret ptr %arrayidx
}

; Function Attrs: mustprogress nounwind uwtable
define linkonce_odr hidden noundef i32 @_ZNK6bufferIP3tbvLb0ELj8EE4sizeEv(ptr noundef nonnull align 8 dereferenceable(80) %this) #5 comdat align 2 {
entry:
  %this.addr = alloca ptr, align 8
  store ptr %this, ptr %this.addr, align 8
  %this1 = load ptr, ptr %this.addr, align 8
  %m_pos = getelementptr inbounds %class.buffer, ptr %this1, i32 0, i32 1
  %0 = load i32, ptr %m_pos, align 8
  ret i32 %0
}

; Function Attrs: mustprogress nounwind uwtable
define linkonce_odr hidden void @_ZN3docC2EP3tbv(ptr noundef nonnull align 8 dereferenceable(88) %this, ptr noundef %t) unnamed_addr #5 comdat align 2 {
entry:
  %this.addr = alloca ptr, align 8
  %t.addr = alloca ptr, align 8
  store ptr %this, ptr %this.addr, align 8
  store ptr %t, ptr %t.addr, align 8
  %this1 = load ptr, ptr %this.addr, align 8
  %m_pos = getelementptr inbounds %class.doc, ptr %this1, i32 0, i32 0
  %0 = load ptr, ptr %t.addr, align 8
  store ptr %0, ptr %m_pos, align 8
  %m_neg = getelementptr inbounds %class.doc, ptr %this1, i32 0, i32 1
  call void @_ZN10union_bvecI11tbv_manager3tbvEC2Ev(ptr noundef nonnull align 8 dereferenceable(80) %m_neg) #3
  ret void
}

; Function Attrs: mustprogress uwtable
define linkonce_odr hidden void @_ZN10union_bvecI11tbv_manager3tbvE9push_backEPS1_(ptr noundef nonnull align 8 dereferenceable(80) %this, ptr noundef %t) #4 comdat align 2 {
entry:
  %this.addr = alloca ptr, align 8
  %t.addr = alloca ptr, align 8
  store ptr %this, ptr %this.addr, align 8
  store ptr %t, ptr %t.addr, align 8
  %this1 = load ptr, ptr %this.addr, align 8
  %m_elems = getelementptr inbounds %class.union_bvec, ptr %this1, i32 0, i32 0
  call void @_ZN6bufferIP3tbvLb0ELj8EE9push_backERKS1_(ptr noundef nonnull align 8 dereferenceable(80) %m_elems, ptr noundef nonnull align 8 dereferenceable(8) %t.addr)
  ret void
}

; Function Attrs: mustprogress uwtable
define linkonce_odr hidden noundef nonnull align 4 dereferenceable(4) ptr @_ZNK10union_bvecI11tbv_manager3tbvEixEj(ptr noundef nonnull align 8 dereferenceable(80) %this, i32 noundef %idx) #4 comdat align 2 {
entry:
  %this.addr = alloca ptr, align 8
  %idx.addr = alloca i32, align 4
  store ptr %this, ptr %this.addr, align 8
  store i32 %idx, ptr %idx.addr, align 4
  %this1 = load ptr, ptr %this.addr, align 8
  %m_elems = getelementptr inbounds %class.union_bvec, ptr %this1, i32 0, i32 0
  %0 = load i32, ptr %idx.addr, align 4
  %call = call noundef nonnull align 8 dereferenceable(8) ptr @_ZNK6bufferIP3tbvLb0ELj8EEixEj(ptr noundef nonnull align 8 dereferenceable(80) %m_elems, i32 noundef %0)
  %1 = load ptr, ptr %call, align 8
  ret ptr %1
}

; Function Attrs: mustprogress nounwind uwtable
define linkonce_odr hidden noundef nonnull align 8 dereferenceable(80) ptr @_ZN3doc3negEv(ptr noundef nonnull align 8 dereferenceable(88) %this) #5 comdat align 2 {
entry:
  %this.addr = alloca ptr, align 8
  store ptr %this, ptr %this.addr, align 8
  %this1 = load ptr, ptr %this.addr, align 8
  %m_neg = getelementptr inbounds %class.doc, ptr %this1, i32 0, i32 1
  ret ptr %m_neg
}

; Function Attrs: mustprogress uwtable
define linkonce_odr hidden noundef i32 @_ZNK10union_bvecI11tbv_manager3tbvE4sizeEv(ptr noundef nonnull align 8 dereferenceable(80) %this) #4 comdat align 2 {
entry:
  %this.addr = alloca ptr, align 8
  store ptr %this, ptr %this.addr, align 8
  %this1 = load ptr, ptr %this.addr, align 8
  %m_elems = getelementptr inbounds %class.union_bvec, ptr %this1, i32 0, i32 0
  %call = call noundef i32 @_ZNK6bufferIP3tbvLb0ELj8EE4sizeEv(ptr noundef nonnull align 8 dereferenceable(80) %m_elems)
  ret i32 %call
}

; Function Attrs: mustprogress nounwind uwtable
define linkonce_odr hidden noundef nonnull align 8 dereferenceable(80) ptr @_ZNK3doc3negEv(ptr noundef nonnull align 8 dereferenceable(88) %this) #5 comdat align 2 {
entry:
  %this.addr = alloca ptr, align 8
  store ptr %this, ptr %this.addr, align 8
  %this1 = load ptr, ptr %this.addr, align 8
  %m_neg = getelementptr inbounds %class.doc, ptr %this1, i32 0, i32 1
  ret ptr %m_neg
}

; Function Attrs: mustprogress uwtable
define hidden noundef ptr @_ZN11doc_manager8allocateEP3tbv(ptr noundef nonnull align 8 dereferenceable(1080) %this, ptr noundef %t) #4 align 2 {
entry:
  %this.addr = alloca ptr, align 8
  %t.addr = alloca ptr, align 8
  %mm = alloca ptr, align 8
  store ptr %this, ptr %this.addr, align 8
  store ptr %t, ptr %t.addr, align 8
  %this1 = load ptr, ptr %this.addr, align 8
  %m_alloc = getelementptr inbounds %class.doc_manager, ptr %this1, i32 0, i32 2
  %call = call noundef ptr @_ZN22small_object_allocator8allocateEm(ptr noundef nonnull align 8 dereferenceable(520) %m_alloc, i64 noundef 88)
  store ptr %call, ptr %mm, align 8
  %0 = load ptr, ptr %mm, align 8
  %1 = load ptr, ptr %t.addr, align 8
  call void @_ZN3docC2EP3tbv(ptr noundef nonnull align 8 dereferenceable(88) %0, ptr noundef %1)
  ret ptr %0
}

; Function Attrs: mustprogress nounwind uwtable
define linkonce_odr hidden noundef nonnull align 4 dereferenceable(4) ptr @_ZNK3doc3posEv(ptr noundef nonnull align 8 dereferenceable(88) %this) #5 comdat align 2 {
entry:
  %this.addr = alloca ptr, align 8
  store ptr %this, ptr %this.addr, align 8
  %this1 = load ptr, ptr %this.addr, align 8
  %m_pos = getelementptr inbounds %class.doc, ptr %this1, i32 0, i32 0
  %0 = load ptr, ptr %m_pos, align 8
  ret ptr %0
}

; Function Attrs: mustprogress uwtable
define hidden noundef ptr @_ZN11doc_manager8allocateERK3doc(ptr noundef nonnull align 8 dereferenceable(1080) %this, ptr noundef nonnull align 8 dereferenceable(88) %src) #4 align 2 {
entry:
  %this.addr = alloca ptr, align 8
  %src.addr = alloca ptr, align 8
  %r = alloca ptr, align 8
  %i = alloca i32, align 4
  store ptr %this, ptr %this.addr, align 8
  store ptr %src, ptr %src.addr, align 8
  %this1 = load ptr, ptr %this.addr, align 8
  %m = getelementptr inbounds %class.doc_manager, ptr %this1, i32 0, i32 0
  %0 = load ptr, ptr %src.addr, align 8
  %call = call noundef nonnull align 4 dereferenceable(4) ptr @_ZNK3doc3posEv(ptr noundef nonnull align 8 dereferenceable(88) %0)
  %call2 = call noundef ptr @_ZN11tbv_manager8allocateERK3tbv(ptr noundef nonnull align 8 dereferenceable(552) %m, ptr noundef nonnull align 4 dereferenceable(4) %call)
  %call3 = call noundef ptr @_ZN11doc_manager8allocateEP3tbv(ptr noundef nonnull align 8 dereferenceable(1080) %this1, ptr noundef %call2)
  store ptr %call3, ptr %r, align 8
  store i32 0, ptr %i, align 4
  br label %for.cond

for.cond:                                         ; preds = %for.inc, %entry
  %1 = load i32, ptr %i, align 4
  %2 = load ptr, ptr %src.addr, align 8
  %call4 = call noundef nonnull align 8 dereferenceable(80) ptr @_ZNK3doc3negEv(ptr noundef nonnull align 8 dereferenceable(88) %2)
  %call5 = call noundef i32 @_ZNK10union_bvecI11tbv_manager3tbvE4sizeEv(ptr noundef nonnull align 8 dereferenceable(80) %call4)
  %cmp = icmp ult i32 %1, %call5
  br i1 %cmp, label %for.body, label %for.end

for.body:                                         ; preds = %for.cond
  %3 = load ptr, ptr %r, align 8
  %call6 = call noundef nonnull align 8 dereferenceable(80) ptr @_ZN3doc3negEv(ptr noundef nonnull align 8 dereferenceable(88) %3)
  %m7 = getelementptr inbounds %class.doc_manager, ptr %this1, i32 0, i32 0
  %4 = load ptr, ptr %src.addr, align 8
  %call8 = call noundef nonnull align 8 dereferenceable(80) ptr @_ZNK3doc3negEv(ptr noundef nonnull align 8 dereferenceable(88) %4)
  %5 = load i32, ptr %i, align 4
  %call9 = call noundef nonnull align 4 dereferenceable(4) ptr @_ZNK10union_bvecI11tbv_manager3tbvEixEj(ptr noundef nonnull align 8 dereferenceable(80) %call8, i32 noundef %5)
  %call10 = call noundef ptr @_ZN11tbv_manager8allocateERK3tbv(ptr noundef nonnull align 8 dereferenceable(552) %m7, ptr noundef nonnull align 4 dereferenceable(4) %call9)
  call void @_ZN10union_bvecI11tbv_manager3tbvE9push_backEPS1_(ptr noundef nonnull align 8 dereferenceable(80) %call6, ptr noundef %call10)
  br label %for.inc

for.inc:                                          ; preds = %for.body
  %6 = load i32, ptr %i, align 4
  %inc = add i32 %6, 1
  store i32 %inc, ptr %i, align 4
  br label %for.cond, !llvm.loop !4

for.end:                                          ; preds = %for.cond
  %7 = load ptr, ptr %r, align 8
  ret ptr %7
}